target datalayout = "e-m:e-p270:32:32-p271:32:32-p272:64:64-i64:64-i128:128-f80:128-n8:16:32:64-S128"
target triple = "x86_64-pc-linux-gnu"

%"class.b3ConvexHullInternal::Point32" = type { i32, i32, i32, i32 }

; Function Attrs: mustprogress nounwind uwtable
define internal noundef zeroext i1 @_ZL10b3PointCmpRKN20b3ConvexHullInternal7Point32ES2_(ptr noundef nonnull align 4 dereferenceable(16) %0, ptr noundef nonnull align 4 dereferenceable(16) %1) #3 {
  %3 = alloca ptr, align 8
  %4 = alloca ptr, align 8
  store ptr %0, ptr %3, align 8, !tbaa !99
  store ptr %1, ptr %4, align 8, !tbaa !99
  %5 = load ptr, ptr %3, align 8, !tbaa !99
  %6 = getelementptr inbounds nuw %"class.b3ConvexHullInternal::Point32", ptr %5, i32 0, i32 1
  %7 = load i32, ptr %6, align 4, !tbaa !102
  %8 = load ptr, ptr %4, align 8, !tbaa !99
  %9 = getelementptr inbounds nuw %"class.b3ConvexHullInternal::Point32", ptr %8, i32 0, i32 1
  %10 = load i32, ptr %9, align 4, !tbaa !102
  %11 = icmp slt i32 %7, %10
  br i1 %11, label %50, label %12

12:                                               ; preds = %2
  %13 = load ptr, ptr %3, align 8, !tbaa !99
  %14 = getelementptr inbounds nuw %"class.b3ConvexHullInternal::Point32", ptr %13, i32 0, i32 1
  %15 = load i32, ptr %14, align 4, !tbaa !102
  %16 = load ptr, ptr %4, align 8, !tbaa !99
  %17 = getelementptr inbounds nuw %"class.b3ConvexHullInternal::Point32", ptr %16, i32 0, i32 1
  %18 = load i32, ptr %17, align 4, !tbaa !102
  %19 = icmp eq i32 %15, %18
  br i1 %19, label %20, label %48

20:                                               ; preds = %12
  %21 = load ptr, ptr %3, align 8, !tbaa !99
  %22 = getelementptr inbounds nuw %"class.b3ConvexHullInternal::Point32", ptr %21, i32 0, i32 0
  %23 = load i32, ptr %22, align 4, !tbaa !101
  %24 = load ptr, ptr %4, align 8, !tbaa !99
  %25 = getelementptr inbounds nuw %"class.b3ConvexHullInternal::Point32", ptr %24, i32 0, i32 0
  %26 = load i32, ptr %25, align 4, !tbaa !101
  %27 = icmp slt i32 %23, %26
  br i1 %27, label %46, label %28

28:                                               ; preds = %20
  %29 = load ptr, ptr %3, align 8, !tbaa !99
  %30 = getelementptr inbounds nuw %"class.b3ConvexHullInternal::Point32", ptr %29, i32 0, i32 0
  %31 = load i32, ptr %30, align 4, !tbaa !101
  %32 = load ptr, ptr %4, align 8, !tbaa !99
  %33 = getelementptr inbounds nuw %"class.b3ConvexHullInternal::Point32", ptr %32, i32 0, i32 0
  %34 = load i32, ptr %33, align 4, !tbaa !101
  %35 = icmp eq i32 %31, %34
  br i1 %35, label %36, label %44

36:                                               ; preds = %28
  %37 = load ptr, ptr %3, align 8, !tbaa !99
  %38 = getelementptr inbounds nuw %"class.b3ConvexHullInternal::Point32", ptr %37, i32 0, i32 2
  %39 = load i32, ptr %38, align 4, !tbaa !103
  %40 = load ptr, ptr %4, align 8, !tbaa !99
  %41 = getelementptr inbounds nuw %"class.b3ConvexHullInternal::Point32", ptr %40, i32 0, i32 2
  %42 = load i32, ptr %41, align 4, !tbaa !103
  %43 = icmp slt i32 %39, %42
  br label %44

44:                                               ; preds = %36, %28
  %45 = phi i1 [ false, %28 ], [ %43, %36 ]
  br label %46

46:                                               ; preds = %44, %20
  %47 = phi i1 [ true, %20 ], [ %45, %44 ]
  br label %48

48:                                               ; preds = %46, %12
  %49 = phi i1 [ false, %12 ], [ %47, %46 ]
  br label %50

50:                                               ; preds = %48, %2
  %51 = phi i1 [ true, %2 ], [ %49, %48 ]
  ret i1 %51
}