; Function Attrs: mustprogress nofree norecurse nosync nounwind willreturn memory(argmem: read) uwtable
define internal noundef zeroext i1 @_ZL10b3PointCmpRKN20b3ConvexHullInternal7Point32ES2_(ptr noundef nonnull readonly align 4 captures(none) dereferenceable(16) %0, ptr noundef nonnull readonly align 4 captures(none) dereferenceable(16) %1) #0 {
  %3 = getelementptr inbounds nuw i8, ptr %0, i64 4
  %4 = load i32, ptr %3, align 4, !tbaa !78
  %5 = getelementptr inbounds nuw i8, ptr %1, i64 4
  %6 = load i32, ptr %5, align 4, !tbaa !78
  %7 = icmp slt i32 %4, %6
  br i1 %7, label %22, label %8

8:                                                ; preds = %2
  %9 = icmp eq i32 %4, %6
  br i1 %9, label %10, label %22

10:                                               ; preds = %8
  %11 = load i32, ptr %0, align 4, !tbaa !77
  %12 = load i32, ptr %1, align 4, !tbaa !77
  %13 = icmp slt i32 %11, %12
  br i1 %13, label %22, label %14

14:                                               ; preds = %10
  %15 = icmp eq i32 %11, %12
  br i1 %15, label %16, label %22

16:                                               ; preds = %14
  %17 = getelementptr inbounds nuw i8, ptr %0, i64 8
  %18 = load i32, ptr %17, align 4, !tbaa !79
  %19 = getelementptr inbounds nuw i8, ptr %1, i64 8
  %20 = load i32, ptr %19, align 4, !tbaa !79
  %21 = icmp slt i32 %18, %20
  br label %22

22:                                               ; preds = %8, %14, %16, %10, %2
  %23 = phi i1 [ true, %2 ], [ false, %8 ], [ true, %10 ], [ false, %14 ], [ %21, %16 ]
  ret i1 %23
}